target datalayout = "e-m:e-p270:32:32-p271:32:32-p272:64:64-i64:64-i128:128-f80:128-n8:16:32:64-S128"
target triple = "x86_64-pc-linux-gnu"

@.str = private unnamed_addr constant [2 x i8] c"A\00", align 1
@.str.1 = private unnamed_addr constant [2 x i8] c"g\00", align 1
@.str.2 = private unnamed_addr constant [2 x i8] c"$\00", align 1
@.str.3 = private unnamed_addr constant [2 x i8] c"l\00", align 1
@.str.4 = private unnamed_addr constant [2 x i8] c"s\00", align 1
@.str.5 = private unnamed_addr constant [2 x i8] c"h\00", align 1
@.str.6 = private unnamed_addr constant [2 x i8] c"z\00", align 1
@.str.7 = private unnamed_addr constant [2 x i8] c"x\00", align 1
@.str.8 = private unnamed_addr constant [2 x i8] c"e\00", align 1
@.str.9 = private unnamed_addr constant [2 x i8] c"t\00", align 1
@.str.10 = private unnamed_addr constant [2 x i8] c"d\00", align 1
@.str.11 = private unnamed_addr constant [2 x i8] c"n\00", align 1
@.str.12 = private unnamed_addr constant [2 x i8] c"K\00", align 1
@.str.13 = private unnamed_addr constant [2 x i8] c"E\00", align 1
@.str.14 = private unnamed_addr constant [2 x i8] c"m\00", align 1

; Function Attrs: nounwind uwtable
define dso_local ptr @keyspaceEventsFlagsToString(i32 noundef %0) #0 {
  %2 = alloca i32, align 4
  %3 = alloca ptr, align 8
  store i32 %0, ptr %2, align 4, !tbaa !10
  call void @llvm.lifetime.start.p0(i64 8, ptr %3) #4
  %4 = call ptr @sdsempty()
  store ptr %4, ptr %3, align 8, !tbaa !5
  %5 = load i32, ptr %2, align 4, !tbaa !10
  %6 = and i32 %5, 10236
  %7 = icmp eq i32 %6, 10236
  br i1 %7, label %8, label %11

8:                                                ; preds = %1
  %9 = load ptr, ptr %3, align 8, !tbaa !5
  %10 = call ptr @sdscatlen(ptr noundef %9, ptr noundef @.str, i64 noundef 1)
  store ptr %10, ptr %3, align 8, !tbaa !5
  br label %89

11:                                               ; preds = %1
  %12 = load i32, ptr %2, align 4, !tbaa !10
  %13 = and i32 %12, 4
  %14 = icmp ne i32 %13, 0
  br i1 %14, label %15, label %18

15:                                               ; preds = %11
  %16 = load ptr, ptr %3, align 8, !tbaa !5
  %17 = call ptr @sdscatlen(ptr noundef %16, ptr noundef @.str.1, i64 noundef 1)
  store ptr %17, ptr %3, align 8, !tbaa !5
  br label %18

18:                                               ; preds = %15, %11
  %19 = load i32, ptr %2, align 4, !tbaa !10
  %20 = and i32 %19, 8
  %21 = icmp ne i32 %20, 0
  br i1 %21, label %22, label %25

22:                                               ; preds = %18
  %23 = load ptr, ptr %3, align 8, !tbaa !5
  %24 = call ptr @sdscatlen(ptr noundef %23, ptr noundef @.str.2, i64 noundef 1)
  store ptr %24, ptr %3, align 8, !tbaa !5
  br label %25

25:                                               ; preds = %22, %18
  %26 = load i32, ptr %2, align 4, !tbaa !10
  %27 = and i32 %26, 16
  %28 = icmp ne i32 %27, 0
  br i1 %28, label %29, label %32

29:                                               ; preds = %25
  %30 = load ptr, ptr %3, align 8, !tbaa !5
  %31 = call ptr @sdscatlen(ptr noundef %30, ptr noundef @.str.3, i64 noundef 1)
  store ptr %31, ptr %3, align 8, !tbaa !5
  br label %32

32:                                               ; preds = %29, %25
  %33 = load i32, ptr %2, align 4, !tbaa !10
  %34 = and i32 %33, 32
  %35 = icmp ne i32 %34, 0
  br i1 %35, label %36, label %39

36:                                               ; preds = %32
  %37 = load ptr, ptr %3, align 8, !tbaa !5
  %38 = call ptr @sdscatlen(ptr noundef %37, ptr noundef @.str.4, i64 noundef 1)
  store ptr %38, ptr %3, align 8, !tbaa !5
  br label %39

39:                                               ; preds = %36, %32
  %40 = load i32, ptr %2, align 4, !tbaa !10
  %41 = and i32 %40, 64
  %42 = icmp ne i32 %41, 0
  br i1 %42, label %43, label %46

43:                                               ; preds = %39
  %44 = load ptr, ptr %3, align 8, !tbaa !5
  %45 = call ptr @sdscatlen(ptr noundef %44, ptr noundef @.str.5, i64 noundef 1)
  store ptr %45, ptr %3, align 8, !tbaa !5
  br label %46

46:                                               ; preds = %43, %39
  %47 = load i32, ptr %2, align 4, !tbaa !10
  %48 = and i32 %47, 128
  %49 = icmp ne i32 %48, 0
  br i1 %49, label %50, label %53

50:                                               ; preds = %46
  %51 = load ptr, ptr %3, align 8, !tbaa !5
  %52 = call ptr @sdscatlen(ptr noundef %51, ptr noundef @.str.6, i64 noundef 1)
  store ptr %52, ptr %3, align 8, !tbaa !5
  br label %53

53:                                               ; preds = %50, %46
  %54 = load i32, ptr %2, align 4, !tbaa !10
  %55 = and i32 %54, 256
  %56 = icmp ne i32 %55, 0
  br i1 %56, label %57, label %60

57:                                               ; preds = %53
  %58 = load ptr, ptr %3, align 8, !tbaa !5
  %59 = call ptr @sdscatlen(ptr noundef %58, ptr noundef @.str.7, i64 noundef 1)
  store ptr %59, ptr %3, align 8, !tbaa !5
  br label %60

60:                                               ; preds = %57, %53
  %61 = load i32, ptr %2, align 4, !tbaa !10
  %62 = and i32 %61, 512
  %63 = icmp ne i32 %62, 0
  br i1 %63, label %64, label %67

64:                                               ; preds = %60
  %65 = load ptr, ptr %3, align 8, !tbaa !5
  %66 = call ptr @sdscatlen(ptr noundef %65, ptr noundef @.str.8, i64 noundef 1)
  store ptr %66, ptr %3, align 8, !tbaa !5
  br label %67

67:                                               ; preds = %64, %60
  %68 = load i32, ptr %2, align 4, !tbaa !10
  %69 = and i32 %68, 1024
  %70 = icmp ne i32 %69, 0
  br i1 %70, label %71, label %74

71:                                               ; preds = %67
  %72 = load ptr, ptr %3, align 8, !tbaa !5
  %73 = call ptr @sdscatlen(ptr noundef %72, ptr noundef @.str.9, i64 noundef 1)
  store ptr %73, ptr %3, align 8, !tbaa !5
  br label %74

74:                                               ; preds = %71, %67
  %75 = load i32, ptr %2, align 4, !tbaa !10
  %76 = and i32 %75, 8192
  %77 = icmp ne i32 %76, 0
  br i1 %77, label %78, label %81

78:                                               ; preds = %74
  %79 = load ptr, ptr %3, align 8, !tbaa !5
  %80 = call ptr @sdscatlen(ptr noundef %79, ptr noundef @.str.10, i64 noundef 1)
  store ptr %80, ptr %3, align 8, !tbaa !5
  br label %81

81:                                               ; preds = %78, %74
  %82 = load i32, ptr %2, align 4, !tbaa !10
  %83 = and i32 %82, 16384
  %84 = icmp ne i32 %83, 0
  br i1 %84, label %85, label %88

85:                                               ; preds = %81
  %86 = load ptr, ptr %3, align 8, !tbaa !5
  %87 = call ptr @sdscatlen(ptr noundef %86, ptr noundef @.str.11, i64 noundef 1)
  store ptr %87, ptr %3, align 8, !tbaa !5
  br label %88

88:                                               ; preds = %85, %81
  br label %89

89:                                               ; preds = %88, %8
  %90 = load i32, ptr %2, align 4, !tbaa !10
  %91 = and i32 %90, 1
  %92 = icmp ne i32 %91, 0
  br i1 %92, label %93, label %96

93:                                               ; preds = %89
  %94 = load ptr, ptr %3, align 8, !tbaa !5
  %95 = call ptr @sdscatlen(ptr noundef %94, ptr noundef @.str.12, i64 noundef 1)
  store ptr %95, ptr %3, align 8, !tbaa !5
  br label %96

96:                                               ; preds = %93, %89
  %97 = load i32, ptr %2, align 4, !tbaa !10
  %98 = and i32 %97, 2
  %99 = icmp ne i32 %98, 0
  br i1 %99, label %100, label %103

100:                                              ; preds = %96
  %101 = load ptr, ptr %3, align 8, !tbaa !5
  %102 = call ptr @sdscatlen(ptr noundef %101, ptr noundef @.str.13, i64 noundef 1)
  store ptr %102, ptr %3, align 8, !tbaa !5
  br label %103

103:                                              ; preds = %100, %96
  %104 = load i32, ptr %2, align 4, !tbaa !10
  %105 = and i32 %104, 2048
  %106 = icmp ne i32 %105, 0
  br i1 %106, label %107, label %110

107:                                              ; preds = %103
  %108 = load ptr, ptr %3, align 8, !tbaa !5
  %109 = call ptr @sdscatlen(ptr noundef %108, ptr noundef @.str.14, i64 noundef 1)
  store ptr %109, ptr %3, align 8, !tbaa !5
  br label %110

110:                                              ; preds = %107, %103
  %111 = load ptr, ptr %3, align 8, !tbaa !5
  call void @llvm.lifetime.end.p0(i64 8, ptr %3) #4
  ret ptr %111
}