; Function Attrs: nounwind uwtable
define dso_local ptr @keyspaceEventsFlagsToString(i32 noundef %0) local_unnamed_addr #2 {
  %2 = tail call ptr @sdsempty() #5
  %3 = and i32 %0, 10236
  %4 = icmp eq i32 %3, 10236
  br i1 %4, label %5, label %7

5:                                                ; preds = %1
  %6 = tail call ptr @sdscatlen(ptr noundef %2, ptr noundef nonnull @.str, i64 noundef 1) #5
  br label %51

7:                                                ; preds = %1
  %8 = and i32 %0, 4
  %.not = icmp eq i32 %8, 0
  br i1 %.not, label %11, label %9

9:                                                ; preds = %7
  %10 = tail call ptr @sdscatlen(ptr noundef %2, ptr noundef nonnull @.str.1, i64 noundef 1) #5
  br label %11

11:                                               ; preds = %9, %7
  %.1 = phi ptr [ %10, %9 ], [ %2, %7 ]
  %12 = and i32 %0, 8
  %.not30 = icmp eq i32 %12, 0
  br i1 %.not30, label %15, label %13

13:                                               ; preds = %11
  %14 = tail call ptr @sdscatlen(ptr noundef %.1, ptr noundef nonnull @.str.2, i64 noundef 1) #5
  br label %15

15:                                               ; preds = %13, %11
  %.2 = phi ptr [ %14, %13 ], [ %.1, %11 ]
  %16 = and i32 %0, 16
  %.not31 = icmp eq i32 %16, 0
  br i1 %.not31, label %19, label %17

17:                                               ; preds = %15
  %18 = tail call ptr @sdscatlen(ptr noundef %.2, ptr noundef nonnull @.str.3, i64 noundef 1) #5
  br label %19

19:                                               ; preds = %17, %15
  %.3 = phi ptr [ %18, %17 ], [ %.2, %15 ]
  %20 = and i32 %0, 32
  %.not32 = icmp eq i32 %20, 0
  br i1 %.not32, label %23, label %21

21:                                               ; preds = %19
  %22 = tail call ptr @sdscatlen(ptr noundef %.3, ptr noundef nonnull @.str.4, i64 noundef 1) #5
  br label %23

23:                                               ; preds = %21, %19
  %.4 = phi ptr [ %22, %21 ], [ %.3, %19 ]
  %24 = and i32 %0, 64
  %.not33 = icmp eq i32 %24, 0
  br i1 %.not33, label %27, label %25

25:                                               ; preds = %23
  %26 = tail call ptr @sdscatlen(ptr noundef %.4, ptr noundef nonnull @.str.5, i64 noundef 1) #5
  br label %27

27:                                               ; preds = %25, %23
  %.5 = phi ptr [ %26, %25 ], [ %.4, %23 ]
  %28 = and i32 %0, 128
  %.not34 = icmp eq i32 %28, 0
  br i1 %.not34, label %31, label %29

29:                                               ; preds = %27
  %30 = tail call ptr @sdscatlen(ptr noundef %.5, ptr noundef nonnull @.str.6, i64 noundef 1) #5
  br label %31

31:                                               ; preds = %29, %27
  %.6 = phi ptr [ %30, %29 ], [ %.5, %27 ]
  %32 = and i32 %0, 256
  %.not35 = icmp eq i32 %32, 0
  br i1 %.not35, label %35, label %33

33:                                               ; preds = %31
  %34 = tail call ptr @sdscatlen(ptr noundef %.6, ptr noundef nonnull @.str.7, i64 noundef 1) #5
  br label %35

35:                                               ; preds = %33, %31
  %.7 = phi ptr [ %34, %33 ], [ %.6, %31 ]
  %36 = and i32 %0, 512
  %.not36 = icmp eq i32 %36, 0
  br i1 %.not36, label %39, label %37

37:                                               ; preds = %35
  %38 = tail call ptr @sdscatlen(ptr noundef %.7, ptr noundef nonnull @.str.8, i64 noundef 1) #5
  br label %39

39:                                               ; preds = %37, %35
  %.8 = phi ptr [ %38, %37 ], [ %.7, %35 ]
  %40 = and i32 %0, 1024
  %.not37 = icmp eq i32 %40, 0
  br i1 %.not37, label %43, label %41

41:                                               ; preds = %39
  %42 = tail call ptr @sdscatlen(ptr noundef %.8, ptr noundef nonnull @.str.9, i64 noundef 1) #5
  br label %43

43:                                               ; preds = %41, %39
  %.9 = phi ptr [ %42, %41 ], [ %.8, %39 ]
  %44 = and i32 %0, 8192
  %.not38 = icmp eq i32 %44, 0
  br i1 %.not38, label %47, label %45

45:                                               ; preds = %43
  %46 = tail call ptr @sdscatlen(ptr noundef %.9, ptr noundef nonnull @.str.10, i64 noundef 1) #5
  br label %47

47:                                               ; preds = %45, %43
  %.10 = phi ptr [ %46, %45 ], [ %.9, %43 ]
  %48 = and i32 %0, 16384
  %.not39 = icmp eq i32 %48, 0
  br i1 %.not39, label %51, label %49

49:                                               ; preds = %47
  %50 = tail call ptr @sdscatlen(ptr noundef %.10, ptr noundef nonnull @.str.11, i64 noundef 1) #5
  br label %51

51:                                               ; preds = %47, %49, %5
  %.0 = phi ptr [ %6, %5 ], [ %50, %49 ], [ %.10, %47 ]
  %52 = and i32 %0, 1
  %.not40 = icmp eq i32 %52, 0
  br i1 %.not40, label %55, label %53

53:                                               ; preds = %51
  %54 = tail call ptr @sdscatlen(ptr noundef %.0, ptr noundef nonnull @.str.12, i64 noundef 1) #5
  br label %55

55:                                               ; preds = %53, %51
  %.11 = phi ptr [ %54, %53 ], [ %.0, %51 ]
  %56 = and i32 %0, 2
  %.not41 = icmp eq i32 %56, 0
  br i1 %.not41, label %59, label %57

57:                                               ; preds = %55
  %58 = tail call ptr @sdscatlen(ptr noundef %.11, ptr noundef nonnull @.str.13, i64 noundef 1) #5
  br label %59

59:                                               ; preds = %57, %55
  %.12 = phi ptr [ %58, %57 ], [ %.11, %55 ]
  %60 = and i32 %0, 2048
  %.not42 = icmp eq i32 %60, 0
  br i1 %.not42, label %63, label %61

61:                                               ; preds = %59
  %62 = tail call ptr @sdscatlen(ptr noundef %.12, ptr noundef nonnull @.str.14, i64 noundef 1) #5
  br label %63

63:                                               ; preds = %61, %59
  %.13 = phi ptr [ %62, %61 ], [ %.12, %59 ]
  ret ptr %.13
}